target datalayout = "e-m:e-p270:32:32-p271:32:32-p272:64:64-i64:64-i128:128-f80:128-n8:16:32:64-S128"
target triple = "x86_64-pc-linux-gnu"

@hf_eigrp_extdata_as = internal global i32 0, align 4
@hf_eigrp_extdata_tag = internal global i32 0, align 4
@hf_eigrp_ipx_extdata_delay = internal global i32 0, align 4
@hf_eigrp_ipx_extdata_metric = internal global i32 0, align 4
@hf_eigrp_extdata_proto = internal global i32 0, align 4
@hf_eigrp_extdata_flag_ext = internal global i32 0, align 4
@hf_eigrp_extdata_flag_cd = internal global i32 0, align 4
@hf_eigrp_ipx_extdata_routerid = internal global i32 0, align 4
@ett_eigrp_tlv_extdata = internal global i32 0, align 4
@ett_eigrp_extdata_flags = internal global i32 0, align 4
@.str.415 = private unnamed_addr constant [14 x i8] c"External Data\00", align 1
@.str.416 = private unnamed_addr constant [15 x i8] c"External Flags\00", align 1

; Function Attrs: null_pointer_is_valid sspstrong uwtable
define internal i32 @dissect_eigrp_extdata_flags(ptr noundef %0, ptr noundef %1, i32 noundef %2) #0 {
  %4 = alloca ptr, align 8
  %5 = alloca ptr, align 8
  %6 = alloca i32, align 4
  %7 = alloca ptr, align 8
  %8 = alloca ptr, align 8
  store ptr %0, ptr %4, align 8
  store ptr %1, ptr %5, align 8
  store i32 %2, ptr %6, align 4
  call void @llvm.lifetime.start.p0(i64 8, ptr %7) #6
  call void @llvm.lifetime.start.p0(i64 8, ptr %8) #6
  %9 = load ptr, ptr %4, align 8
  %10 = load ptr, ptr %5, align 8
  %11 = load i32, ptr %6, align 4
  %12 = load i32, ptr @ett_eigrp_extdata_flags, align 4
  %13 = call ptr @proto_tree_add_subtree(ptr noundef %9, ptr noundef %10, i32 noundef %11, i32 noundef 1, i32 noundef %12, ptr noundef null, ptr noundef @.str.416)
  store ptr %13, ptr %7, align 8
  %14 = load ptr, ptr %5, align 8
  %15 = load i32, ptr %6, align 4
  %16 = call ptr @tvb_new_subset_remaining(ptr noundef %14, i32 noundef %15)
  store ptr %16, ptr %8, align 8
  %17 = load ptr, ptr %7, align 8
  %18 = load i32, ptr @hf_eigrp_extdata_flag_ext, align 4
  %19 = load ptr, ptr %8, align 8
  %20 = call ptr @proto_tree_add_item(ptr noundef %17, i32 noundef %18, ptr noundef %19, i32 noundef 0, i32 noundef 1, i32 noundef 0)
  %21 = load ptr, ptr %7, align 8
  %22 = load i32, ptr @hf_eigrp_extdata_flag_cd, align 4
  %23 = load ptr, ptr %8, align 8
  %24 = call ptr @proto_tree_add_item(ptr noundef %21, i32 noundef %22, ptr noundef %23, i32 noundef 0, i32 noundef 1, i32 noundef 0)
  %25 = load i32, ptr %6, align 4
  %26 = add i32 %25, 1
  store i32 %26, ptr %6, align 4
  %27 = load i32, ptr %6, align 4
  call void @llvm.lifetime.end.p0(i64 8, ptr %8) #6
  call void @llvm.lifetime.end.p0(i64 8, ptr %7) #6
  ret i32 %27
}

; Function Attrs: null_pointer_is_valid sspstrong uwtable
define internal i32 @dissect_eigrp_ipx_extdata(ptr noundef %0, ptr noundef %1, i32 noundef %2) #0 {
  %4 = alloca ptr, align 8
  %5 = alloca ptr, align 8
  %6 = alloca i32, align 4
  %7 = alloca ptr, align 8
  %8 = alloca ptr, align 8
  %9 = alloca i32, align 4
  store ptr %0, ptr %4, align 8
  store ptr %1, ptr %5, align 8
  store i32 %2, ptr %6, align 4
  call void @llvm.lifetime.start.p0(i64 8, ptr %7) #6
  call void @llvm.lifetime.start.p0(i64 8, ptr %8) #6
  call void @llvm.lifetime.start.p0(i64 4, ptr %9) #6
  store i32 0, ptr %9, align 4
  %10 = load ptr, ptr %4, align 8
  %11 = load ptr, ptr %5, align 8
  %12 = load i32, ptr %6, align 4
  %13 = load i32, ptr @ett_eigrp_tlv_extdata, align 4
  %14 = call ptr @proto_tree_add_subtree(ptr noundef %10, ptr noundef %11, i32 noundef %12, i32 noundef 20, i32 noundef %13, ptr noundef null, ptr noundef @.str.415)
  store ptr %14, ptr %7, align 8
  %15 = load ptr, ptr %5, align 8
  %16 = load i32, ptr %6, align 4
  %17 = call ptr @tvb_new_subset_length_caplen(ptr noundef %15, i32 noundef %16, i32 noundef 20, i32 noundef -1)
  store ptr %17, ptr %8, align 8
  %18 = load ptr, ptr %7, align 8
  %19 = load i32, ptr @hf_eigrp_ipx_extdata_routerid, align 4
  %20 = load ptr, ptr %8, align 8
  %21 = load i32, ptr %9, align 4
  %22 = call ptr @proto_tree_add_item(ptr noundef %18, i32 noundef %19, ptr noundef %20, i32 noundef %21, i32 noundef 6, i32 noundef 0)
  %23 = load i32, ptr %9, align 4
  %24 = add i32 %23, 6
  store i32 %24, ptr %9, align 4
  %25 = load ptr, ptr %7, align 8
  %26 = load i32, ptr @hf_eigrp_extdata_as, align 4
  %27 = load ptr, ptr %8, align 8
  %28 = load i32, ptr %9, align 4
  %29 = call ptr @proto_tree_add_item(ptr noundef %25, i32 noundef %26, ptr noundef %27, i32 noundef %28, i32 noundef 4, i32 noundef 0)
  %30 = load i32, ptr %9, align 4
  %31 = add i32 %30, 4
  store i32 %31, ptr %9, align 4
  %32 = load ptr, ptr %7, align 8
  %33 = load i32, ptr @hf_eigrp_extdata_tag, align 4
  %34 = load ptr, ptr %8, align 8
  %35 = load i32, ptr %9, align 4
  %36 = call ptr @proto_tree_add_item(ptr noundef %32, i32 noundef %33, ptr noundef %34, i32 noundef %35, i32 noundef 4, i32 noundef 0)
  %37 = load i32, ptr %9, align 4
  %38 = add i32 %37, 4
  store i32 %38, ptr %9, align 4
  %39 = load ptr, ptr %7, align 8
  %40 = load i32, ptr @hf_eigrp_extdata_proto, align 4
  %41 = load ptr, ptr %8, align 8
  %42 = load i32, ptr %9, align 4
  %43 = call ptr @proto_tree_add_item(ptr noundef %39, i32 noundef %40, ptr noundef %41, i32 noundef %42, i32 noundef 1, i32 noundef 0)
  %44 = load i32, ptr %9, align 4
  %45 = add i32 %44, 1
  store i32 %45, ptr %9, align 4
  %46 = load ptr, ptr %7, align 8
  %47 = load ptr, ptr %8, align 8
  %48 = load i32, ptr %9, align 4
  %49 = call i32 @dissect_eigrp_extdata_flags(ptr noundef %46, ptr noundef %47, i32 noundef %48)
  %50 = load i32, ptr %9, align 4
  %51 = add i32 %50, 1
  store i32 %51, ptr %9, align 4
  %52 = load ptr, ptr %7, align 8
  %53 = load i32, ptr @hf_eigrp_ipx_extdata_metric, align 4
  %54 = load ptr, ptr %8, align 8
  %55 = load i32, ptr %9, align 4
  %56 = call ptr @proto_tree_add_item(ptr noundef %52, i32 noundef %53, ptr noundef %54, i32 noundef %55, i32 noundef 2, i32 noundef 0)
  %57 = load i32, ptr %9, align 4
  %58 = add i32 %57, 2
  store i32 %58, ptr %9, align 4
  %59 = load ptr, ptr %7, align 8
  %60 = load i32, ptr @hf_eigrp_ipx_extdata_delay, align 4
  %61 = load ptr, ptr %8, align 8
  %62 = load i32, ptr %9, align 4
  %63 = call ptr @proto_tree_add_item(ptr noundef %59, i32 noundef %60, ptr noundef %61, i32 noundef %62, i32 noundef 2, i32 noundef 0)
  %64 = load i32, ptr %9, align 4
  %65 = add i32 %64, 2
  store i32 %65, ptr %9, align 4
  %66 = load i32, ptr %9, align 4
  %67 = load i32, ptr %6, align 4
  %68 = add i32 %67, %66
  store i32 %68, ptr %6, align 4
  %69 = load i32, ptr %6, align 4
  call void @llvm.lifetime.end.p0(i64 4, ptr %9) #6
  call void @llvm.lifetime.end.p0(i64 8, ptr %8) #6
  call void @llvm.lifetime.end.p0(i64 8, ptr %7) #6
  ret i32 %69
}