; Function Attrs: null_pointer_is_valid sspstrong uwtable
define internal fastcc noundef i32 @dissect_eigrp_ipx_extdata(ptr noundef %0, ptr noundef %1, i32 noundef %2) unnamed_addr #0 {
  %4 = load i32, ptr @ett_eigrp_tlv_extdata, align 4
  %5 = tail call ptr @proto_tree_add_subtree(ptr noundef %0, ptr noundef %1, i32 noundef %2, i32 noundef 20, i32 noundef %4, ptr noundef null, ptr noundef nonnull @.str.415)
  %6 = tail call ptr @tvb_new_subset_length_caplen(ptr noundef %1, i32 noundef %2, i32 noundef 20, i32 noundef -1)
  %7 = load i32, ptr @hf_eigrp_ipx_extdata_routerid, align 4
  %8 = tail call ptr @proto_tree_add_item(ptr noundef %5, i32 noundef %7, ptr noundef %6, i32 noundef 0, i32 noundef 6, i32 noundef 0)
  %9 = load i32, ptr @hf_eigrp_extdata_as, align 4
  %10 = tail call ptr @proto_tree_add_item(ptr noundef %5, i32 noundef %9, ptr noundef %6, i32 noundef 6, i32 noundef 4, i32 noundef 0)
  %11 = load i32, ptr @hf_eigrp_extdata_tag, align 4
  %12 = tail call ptr @proto_tree_add_item(ptr noundef %5, i32 noundef %11, ptr noundef %6, i32 noundef 10, i32 noundef 4, i32 noundef 0)
  %13 = load i32, ptr @hf_eigrp_extdata_proto, align 4
  %14 = tail call ptr @proto_tree_add_item(ptr noundef %5, i32 noundef %13, ptr noundef %6, i32 noundef 14, i32 noundef 1, i32 noundef 0)
  %15 = load i32, ptr @ett_eigrp_extdata_flags, align 4
  %16 = tail call ptr @proto_tree_add_subtree(ptr noundef %5, ptr noundef %6, i32 noundef 15, i32 noundef 1, i32 noundef %15, ptr noundef null, ptr noundef nonnull @.str.416)
  %17 = tail call ptr @tvb_new_subset_remaining(ptr noundef %6, i32 noundef 15)
  %18 = load i32, ptr @hf_eigrp_extdata_flag_ext, align 4
  %19 = tail call ptr @proto_tree_add_item(ptr noundef %16, i32 noundef %18, ptr noundef %17, i32 noundef 0, i32 noundef 1, i32 noundef 0)
  %20 = load i32, ptr @hf_eigrp_extdata_flag_cd, align 4
  %21 = tail call ptr @proto_tree_add_item(ptr noundef %16, i32 noundef %20, ptr noundef %17, i32 noundef 0, i32 noundef 1, i32 noundef 0)
  %22 = load i32, ptr @hf_eigrp_ipx_extdata_metric, align 4
  %23 = tail call ptr @proto_tree_add_item(ptr noundef %5, i32 noundef %22, ptr noundef %6, i32 noundef 16, i32 noundef 2, i32 noundef 0)
  %24 = load i32, ptr @hf_eigrp_ipx_extdata_delay, align 4
  %25 = tail call ptr @proto_tree_add_item(ptr noundef %5, i32 noundef %24, ptr noundef %6, i32 noundef 18, i32 noundef 2, i32 noundef 0)
  %26 = add i32 %2, 20
  ret i32 %26
}